target datalayout = "e-m:e-p270:32:32-p271:32:32-p272:64:64-i64:64-i128:128-f80:128-n8:16:32:64-S128"
target triple = "x86_64-pc-linux-gnu"

%struct.AVProbeData = type { ptr, ptr, i32, ptr }

@.str.38 = private unnamed_addr constant [8 x i8] c".R1M\00\01\01\00", align 1
@.str.39 = private unnamed_addr constant [5 x i8] c".REC\00", align 1

; Function Attrs: nounwind uwtable
define internal i32 @ivr_probe(ptr noundef %0) #0 {
  %2 = alloca i32, align 4
  %3 = alloca ptr, align 8
  store ptr %0, ptr %3, align 8, !tbaa !119
  %4 = load ptr, ptr %3, align 8, !tbaa !119
  %5 = getelementptr inbounds nuw %struct.AVProbeData, ptr %4, i32 0, i32 1
  %6 = load ptr, ptr %5, align 8, !tbaa !121
  %7 = call i32 @memcmp(ptr noundef %6, ptr noundef @.str.38, i64 noundef 7) #11
  %8 = icmp ne i32 %7, 0
  br i1 %8, label %9, label %16

9:                                                ; preds = %1
  %10 = load ptr, ptr %3, align 8, !tbaa !119
  %11 = getelementptr inbounds nuw %struct.AVProbeData, ptr %10, i32 0, i32 1
  %12 = load ptr, ptr %11, align 8, !tbaa !121
  %13 = call i32 @memcmp(ptr noundef %12, ptr noundef @.str.39, i64 noundef 4) #11
  %14 = icmp ne i32 %13, 0
  br i1 %14, label %15, label %16

15:                                               ; preds = %9
  store i32 0, ptr %2, align 4
  br label %17

16:                                               ; preds = %9, %1
  store i32 100, ptr %2, align 4
  br label %17

17:                                               ; preds = %16, %15
  %18 = load i32, ptr %2, align 4
  ret i32 %18
}