; Function Attrs: mustprogress nofree norecurse nounwind willreturn memory(read, inaccessiblemem: none) uwtable
define internal range(i32 0, 101) i32 @ivr_probe(ptr noundef readonly captures(none) %0) #7 {
  %2 = getelementptr inbounds nuw i8, ptr %0, i64 8
  %3 = load ptr, ptr %2, align 8, !tbaa !97
  %bcmp = tail call i32 @bcmp(ptr noundef nonnull dereferenceable(7) %3, ptr noundef nonnull dereferenceable(7) @.str.38, i64 7)
  %.not = icmp eq i32 %bcmp, 0
  br i1 %.not, label %5, label %4

4:                                                ; preds = %1
  %bcmp2 = tail call i32 @bcmp(ptr noundef nonnull dereferenceable(4) %3, ptr noundef nonnull dereferenceable(4) @.str.39, i64 4)
  %.not3 = icmp eq i32 %bcmp2, 0
  br i1 %.not3, label %5, label %6

5:                                                ; preds = %4, %1
  br label %6

6:                                                ; preds = %4, %5
  %.0 = phi i32 [ 100, %5 ], [ 0, %4 ]
  ret i32 %.0
}